target datalayout = "e-m:e-p270:32:32-p271:32:32-p272:64:64-i64:64-i128:128-f80:128-n8:16:32:64-S128"
target triple = "x86_64-pc-linux-gnu"

%struct.sct_st = type { i32, ptr, i64, ptr, i64, i64, ptr, i64, i8, i8, ptr, i64, i32, i32, i32 }
%struct.ct_policy_eval_ctx_st = type { ptr, ptr, ptr, i64, ptr, ptr }

; Function Attrs: nounwind uwtable
define i32 @SCT_get_log_entry_type(ptr noundef %0) #0 {
  %2 = alloca ptr, align 8
  store ptr %0, ptr %2, align 8, !tbaa !3
  %3 = load ptr, ptr %2, align 8, !tbaa !3
  %4 = getelementptr inbounds nuw %struct.sct_st, ptr %3, i32 0, i32 12
  %5 = load i32, ptr %4, align 8, !tbaa !8
  ret i32 %5
}

; Function Attrs: nounwind uwtable
define i32 @SCT_validate(ptr noundef %0, ptr noundef %1) #0 {
  %3 = alloca i32, align 4
  %4 = alloca ptr, align 8
  %5 = alloca ptr, align 8
  %6 = alloca i32, align 4
  %7 = alloca ptr, align 8
  %8 = alloca ptr, align 8
  %9 = alloca ptr, align 8
  %10 = alloca ptr, align 8
  %11 = alloca i32, align 4
  %12 = alloca ptr, align 8
  store ptr %0, ptr %4, align 8, !tbaa !3
  store ptr %1, ptr %5, align 8, !tbaa !34
  call void @llvm.lifetime.start.p0(i64 4, ptr %6) #4
  store i32 -1, ptr %6, align 4, !tbaa !21
  call void @llvm.lifetime.start.p0(i64 8, ptr %7) #4
  store ptr null, ptr %7, align 8, !tbaa !36
  call void @llvm.lifetime.start.p0(i64 8, ptr %8) #4
  store ptr null, ptr %8, align 8, !tbaa !38
  call void @llvm.lifetime.start.p0(i64 8, ptr %9) #4
  store ptr null, ptr %9, align 8, !tbaa !38
  call void @llvm.lifetime.start.p0(i64 8, ptr %10) #4
  %13 = load ptr, ptr %4, align 8, !tbaa !3
  %14 = getelementptr inbounds nuw %struct.sct_st, ptr %13, i32 0, i32 0
  %15 = load i32, ptr %14, align 8, !tbaa !13
  %16 = icmp ne i32 %15, 0
  br i1 %16, label %17, label %20

17:                                               ; preds = %2
  %18 = load ptr, ptr %4, align 8, !tbaa !3
  %19 = getelementptr inbounds nuw %struct.sct_st, ptr %18, i32 0, i32 14
  store i32 5, ptr %19, align 8, !tbaa !22
  store i32 0, ptr %3, align 4
  store i32 1, ptr %11, align 4
  br label %124

20:                                               ; preds = %2
  %21 = load ptr, ptr %5, align 8, !tbaa !34
  %22 = getelementptr inbounds nuw %struct.ct_policy_eval_ctx_st, ptr %21, i32 0, i32 2
  %23 = load ptr, ptr %22, align 8, !tbaa !40
  %24 = load ptr, ptr %4, align 8, !tbaa !3
  %25 = getelementptr inbounds nuw %struct.sct_st, ptr %24, i32 0, i32 3
  %26 = load ptr, ptr %25, align 8, !tbaa !14
  %27 = load ptr, ptr %4, align 8, !tbaa !3
  %28 = getelementptr inbounds nuw %struct.sct_st, ptr %27, i32 0, i32 4
  %29 = load i64, ptr %28, align 8, !tbaa !25
  %30 = call ptr @CTLOG_STORE_get0_log_by_id(ptr noundef %23, ptr noundef %26, i64 noundef %29)
  store ptr %30, ptr %10, align 8, !tbaa !45
  %31 = load ptr, ptr %10, align 8, !tbaa !45
  %32 = icmp eq ptr %31, null
  br i1 %32, label %33, label %36

33:                                               ; preds = %20
  %34 = load ptr, ptr %4, align 8, !tbaa !3
  %35 = getelementptr inbounds nuw %struct.sct_st, ptr %34, i32 0, i32 14
  store i32 1, ptr %35, align 8, !tbaa !22
  store i32 0, ptr %3, align 4
  store i32 1, ptr %11, align 4
  br label %124

36:                                               ; preds = %20
  %37 = load ptr, ptr %5, align 8, !tbaa !34
  %38 = getelementptr inbounds nuw %struct.ct_policy_eval_ctx_st, ptr %37, i32 0, i32 4
  %39 = load ptr, ptr %38, align 8, !tbaa !47
  %40 = load ptr, ptr %5, align 8, !tbaa !34
  %41 = getelementptr inbounds nuw %struct.ct_policy_eval_ctx_st, ptr %40, i32 0, i32 5
  %42 = load ptr, ptr %41, align 8, !tbaa !48
  %43 = call ptr @SCT_CTX_new(ptr noundef %39, ptr noundef %42)
  store ptr %43, ptr %7, align 8, !tbaa !36
  %44 = load ptr, ptr %7, align 8, !tbaa !36
  %45 = icmp eq ptr %44, null
  br i1 %45, label %46, label %47

46:                                               ; preds = %36
  br label %119

47:                                               ; preds = %36
  %48 = load ptr, ptr %10, align 8, !tbaa !45
  %49 = call ptr @CTLOG_get0_public_key(ptr noundef %48)
  %50 = call i32 @X509_PUBKEY_set(ptr noundef %9, ptr noundef %49)
  %51 = icmp ne i32 %50, 1
  br i1 %51, label %52, label %53

52:                                               ; preds = %47
  br label %119

53:                                               ; preds = %47
  %54 = load ptr, ptr %7, align 8, !tbaa !36
  %55 = load ptr, ptr %9, align 8, !tbaa !38
  %56 = call i32 @SCT_CTX_set1_pubkey(ptr noundef %54, ptr noundef %55)
  %57 = icmp ne i32 %56, 1
  br i1 %57, label %58, label %59

58:                                               ; preds = %53
  br label %119

59:                                               ; preds = %53
  %60 = load ptr, ptr %4, align 8, !tbaa !3
  %61 = call i32 @SCT_get_log_entry_type(ptr noundef %60)
  %62 = icmp eq i32 %61, 1
  br i1 %62, label %63, label %90

63:                                               ; preds = %59
  call void @llvm.lifetime.start.p0(i64 8, ptr %12) #4
  %64 = load ptr, ptr %5, align 8, !tbaa !34
  %65 = getelementptr inbounds nuw %struct.ct_policy_eval_ctx_st, ptr %64, i32 0, i32 1
  %66 = load ptr, ptr %65, align 8, !tbaa !49
  %67 = icmp eq ptr %66, null
  br i1 %67, label %68, label %71

68:                                               ; preds = %63
  %69 = load ptr, ptr %4, align 8, !tbaa !3
  %70 = getelementptr inbounds nuw %struct.sct_st, ptr %69, i32 0, i32 14
  store i32 4, ptr %70, align 8, !tbaa !22
  store i32 3, ptr %11, align 4
  br label %87

71:                                               ; preds = %63
  %72 = load ptr, ptr %5, align 8, !tbaa !34
  %73 = getelementptr inbounds nuw %struct.ct_policy_eval_ctx_st, ptr %72, i32 0, i32 1
  %74 = load ptr, ptr %73, align 8, !tbaa !49
  %75 = call ptr @X509_get0_pubkey(ptr noundef %74)
  store ptr %75, ptr %12, align 8, !tbaa !50
  %76 = load ptr, ptr %12, align 8, !tbaa !50
  %77 = call i32 @X509_PUBKEY_set(ptr noundef %8, ptr noundef %76)
  %78 = icmp ne i32 %77, 1
  br i1 %78, label %79, label %80

79:                                               ; preds = %71
  store i32 2, ptr %11, align 4
  br label %87

80:                                               ; preds = %71
  %81 = load ptr, ptr %7, align 8, !tbaa !36
  %82 = load ptr, ptr %8, align 8, !tbaa !38
  %83 = call i32 @SCT_CTX_set1_issuer_pubkey(ptr noundef %81, ptr noundef %82)
  %84 = icmp ne i32 %83, 1
  br i1 %84, label %85, label %86

85:                                               ; preds = %80
  store i32 2, ptr %11, align 4
  br label %87

86:                                               ; preds = %80
  store i32 0, ptr %11, align 4
  br label %87

87:                                               ; preds = %85, %79, %68, %86
  call void @llvm.lifetime.end.p0(i64 8, ptr %12) #4
  %88 = load i32, ptr %11, align 4
  switch i32 %88, label %124 [
    i32 0, label %89
    i32 3, label %113
    i32 2, label %119
  ]

89:                                               ; preds = %87
  br label %90

90:                                               ; preds = %89, %59
  %91 = load ptr, ptr %7, align 8, !tbaa !36
  %92 = load ptr, ptr %5, align 8, !tbaa !34
  %93 = getelementptr inbounds nuw %struct.ct_policy_eval_ctx_st, ptr %92, i32 0, i32 3
  %94 = load i64, ptr %93, align 8, !tbaa !52
  call void @SCT_CTX_set_time(ptr noundef %91, i64 noundef %94)
  %95 = load ptr, ptr %7, align 8, !tbaa !36
  %96 = load ptr, ptr %5, align 8, !tbaa !34
  %97 = getelementptr inbounds nuw %struct.ct_policy_eval_ctx_st, ptr %96, i32 0, i32 0
  %98 = load ptr, ptr %97, align 8, !tbaa !53
  %99 = call i32 @SCT_CTX_set1_cert(ptr noundef %95, ptr noundef %98, ptr noundef null)
  %100 = icmp ne i32 %99, 1
  br i1 %100, label %101, label %104

101:                                              ; preds = %90
  %102 = load ptr, ptr %4, align 8, !tbaa !3
  %103 = getelementptr inbounds nuw %struct.sct_st, ptr %102, i32 0, i32 14
  store i32 4, ptr %103, align 8, !tbaa !22
  br label %112

104:                                              ; preds = %90
  %105 = load ptr, ptr %7, align 8, !tbaa !36
  %106 = load ptr, ptr %4, align 8, !tbaa !3
  %107 = call i32 @SCT_CTX_verify(ptr noundef %105, ptr noundef %106)
  %108 = icmp eq i32 %107, 1
  %109 = select i1 %108, i32 2, i32 3
  %110 = load ptr, ptr %4, align 8, !tbaa !3
  %111 = getelementptr inbounds nuw %struct.sct_st, ptr %110, i32 0, i32 14
  store i32 %109, ptr %111, align 8, !tbaa !22
  br label %112

112:                                              ; preds = %104, %101
  br label %113

113:                                              ; preds = %112, %87
  %114 = load ptr, ptr %4, align 8, !tbaa !3
  %115 = getelementptr inbounds nuw %struct.sct_st, ptr %114, i32 0, i32 14
  %116 = load i32, ptr %115, align 8, !tbaa !22
  %117 = icmp eq i32 %116, 2
  %118 = zext i1 %117 to i32
  store i32 %118, ptr %6, align 4, !tbaa !21
  br label %119

119:                                              ; preds = %113, %87, %58, %52, %46
  %120 = load ptr, ptr %8, align 8, !tbaa !38
  call void @X509_PUBKEY_free(ptr noundef %120)
  %121 = load ptr, ptr %9, align 8, !tbaa !38
  call void @X509_PUBKEY_free(ptr noundef %121)
  %122 = load ptr, ptr %7, align 8, !tbaa !36
  call void @SCT_CTX_free(ptr noundef %122)
  %123 = load i32, ptr %6, align 4, !tbaa !21
  store i32 %123, ptr %3, align 4
  store i32 1, ptr %11, align 4
  br label %124

124:                                              ; preds = %119, %87, %33, %17
  call void @llvm.lifetime.end.p0(i64 8, ptr %10) #4
  call void @llvm.lifetime.end.p0(i64 8, ptr %9) #4
  call void @llvm.lifetime.end.p0(i64 8, ptr %8) #4
  call void @llvm.lifetime.end.p0(i64 8, ptr %7) #4
  call void @llvm.lifetime.end.p0(i64 4, ptr %6) #4
  %125 = load i32, ptr %3, align 4
  ret i32 %125
}