; Function Attrs: nounwind uwtable
define range(i32 -1, 2) i32 @SCT_validate(ptr noundef %0, ptr noundef readonly captures(none) %1) local_unnamed_addr #0 {
  %3 = alloca ptr, align 8
  %4 = alloca ptr, align 8
  call void @llvm.lifetime.start.p0(i64 8, ptr nonnull %3) #7
  store ptr null, ptr %3, align 8, !tbaa !25
  call void @llvm.lifetime.start.p0(i64 8, ptr nonnull %4) #7
  store ptr null, ptr %4, align 8, !tbaa !25
  %5 = load i32, ptr %0, align 8, !tbaa !11
  %.not = icmp eq i32 %5, 0
  br i1 %.not, label %8, label %6

6:                                                ; preds = %2
  %7 = getelementptr inbounds nuw i8, ptr %0, i64 96
  store i32 5, ptr %7, align 8, !tbaa !16
  br label %62

8:                                                ; preds = %2
  %9 = getelementptr inbounds nuw i8, ptr %1, i64 16
  %10 = load ptr, ptr %9, align 8, !tbaa !27
  %11 = getelementptr inbounds nuw i8, ptr %0, i64 24
  %12 = load ptr, ptr %11, align 8, !tbaa !12
  %13 = getelementptr inbounds nuw i8, ptr %0, i64 32
  %14 = load i64, ptr %13, align 8, !tbaa !17
  %15 = tail call ptr @CTLOG_STORE_get0_log_by_id(ptr noundef %10, ptr noundef %12, i64 noundef %14) #7
  %16 = icmp eq ptr %15, null
  br i1 %16, label %17, label %19

17:                                               ; preds = %8
  %18 = getelementptr inbounds nuw i8, ptr %0, i64 96
  store i32 1, ptr %18, align 8, !tbaa !16
  br label %62

19:                                               ; preds = %8
  %20 = getelementptr inbounds nuw i8, ptr %1, i64 32
  %21 = load ptr, ptr %20, align 8, !tbaa !32
  %22 = getelementptr inbounds nuw i8, ptr %1, i64 40
  %23 = load ptr, ptr %22, align 8, !tbaa !33
  %24 = tail call ptr @SCT_CTX_new(ptr noundef %21, ptr noundef %23) #7
  %25 = icmp eq ptr %24, null
  br i1 %25, label %.thread, label %26

26:                                               ; preds = %19
  %27 = tail call ptr @CTLOG_get0_public_key(ptr noundef nonnull %15) #7
  %28 = call i32 @X509_PUBKEY_set(ptr noundef nonnull %4, ptr noundef %27) #7
  %.not35 = icmp eq i32 %28, 1
  br i1 %.not35, label %29, label %.thread

29:                                               ; preds = %26
  %30 = load ptr, ptr %4, align 8, !tbaa !25
  %31 = call i32 @SCT_CTX_set1_pubkey(ptr noundef nonnull %24, ptr noundef %30) #7
  %.not36 = icmp eq i32 %31, 1
  br i1 %.not36, label %32, label %.thread

32:                                               ; preds = %29
  %33 = getelementptr inbounds nuw i8, ptr %0, i64 88
  %34 = load i32, ptr %33, align 8, !tbaa !3
  %35 = icmp eq i32 %34, 1
  br i1 %35, label %36, label %.thread41

36:                                               ; preds = %32
  %37 = getelementptr inbounds nuw i8, ptr %1, i64 8
  %38 = load ptr, ptr %37, align 8, !tbaa !34
  %39 = icmp eq ptr %38, null
  br i1 %39, label %46, label %40

40:                                               ; preds = %36
  %41 = call ptr @X509_get0_pubkey(ptr noundef nonnull %38) #7
  %42 = call i32 @X509_PUBKEY_set(ptr noundef nonnull %3, ptr noundef %41) #7
  %.not37 = icmp eq i32 %42, 1
  br i1 %.not37, label %43, label %.thread

43:                                               ; preds = %40
  %44 = load ptr, ptr %3, align 8, !tbaa !25
  %45 = call i32 @SCT_CTX_set1_issuer_pubkey(ptr noundef nonnull %24, ptr noundef %44) #7
  %.not38 = icmp eq i32 %45, 1
  br i1 %.not38, label %.thread41, label %.thread

46:                                               ; preds = %36
  %47 = getelementptr inbounds nuw i8, ptr %0, i64 96
  store i32 4, ptr %47, align 8, !tbaa !16
  br label %.thread

.thread41:                                        ; preds = %43, %32
  %48 = getelementptr inbounds nuw i8, ptr %1, i64 24
  %49 = load i64, ptr %48, align 8, !tbaa !35
  call void @SCT_CTX_set_time(ptr noundef nonnull %24, i64 noundef %49) #7
  %50 = load ptr, ptr %1, align 8, !tbaa !36
  %51 = call i32 @SCT_CTX_set1_cert(ptr noundef nonnull %24, ptr noundef %50, ptr noundef null) #7
  %.not39 = icmp eq i32 %51, 1
  br i1 %.not39, label %54, label %52

52:                                               ; preds = %.thread41
  %53 = getelementptr inbounds nuw i8, ptr %0, i64 96
  store i32 4, ptr %53, align 8, !tbaa !16
  br label %.thread

54:                                               ; preds = %.thread41
  %55 = call i32 @SCT_CTX_verify(ptr noundef nonnull %24, ptr noundef nonnull %0) #7
  %56 = icmp eq i32 %55, 1
  %57 = select i1 %56, i32 2, i32 3
  %58 = getelementptr inbounds nuw i8, ptr %0, i64 96
  store i32 %57, ptr %58, align 8, !tbaa !16
  %59 = zext i1 %56 to i32
  br label %.thread

.thread:                                          ; preds = %54, %52, %46, %43, %40, %29, %26, %19
  %.031 = phi i32 [ -1, %19 ], [ -1, %26 ], [ -1, %29 ], [ -1, %40 ], [ -1, %43 ], [ 0, %46 ], [ 0, %52 ], [ %59, %54 ]
  %60 = load ptr, ptr %3, align 8, !tbaa !25
  call void @X509_PUBKEY_free(ptr noundef %60) #7
  %61 = load ptr, ptr %4, align 8, !tbaa !25
  call void @X509_PUBKEY_free(ptr noundef %61) #7
  call void @SCT_CTX_free(ptr noundef %24) #7
  br label %62

62:                                               ; preds = %.thread, %17, %6
  %.0 = phi i32 [ 0, %6 ], [ 0, %17 ], [ %.031, %.thread ]
  call void @llvm.lifetime.end.p0(i64 8, ptr nonnull %4) #7
  call void @llvm.lifetime.end.p0(i64 8, ptr nonnull %3) #7
  ret i32 %.0
}